; ModuleID = 'source-C-CXX/24/933.cpp'
source_filename = "source-C-CXX/24/933.cpp"
target datalayout = "e-m:e-p270:32:32-p271:32:32-p272:64:64-i64:64-f80:128-n8:16:32:64-S128"
target triple = "x86_64-pc-linux-gnu"

%"class.std::ios_base::Init" = type { i8 }
%"class.std::basic_istream" = type { i32 (...)**, i64, %"class.std::basic_ios" }
%"class.std::basic_ios" = type { %"class.std::ios_base", %"class.std::basic_ostream"*, i8, i8, %"class.std::basic_streambuf"*, %"class.std::ctype"*, %"class.std::num_put"*, %"class.std::num_get"* }
%"class.std::ios_base" = type { i32 (...)**, i64, i64, i32, i32, i32, %"struct.std::ios_base::_Callback_list"*, %"struct.std::ios_base::_Words", [8 x %"struct.std::ios_base::_Words"], i32, %"struct.std::ios_base::_Words"*, %"class.std::locale" }
%"struct.std::ios_base::_Callback_list" = type { %"struct.std::ios_base::_Callback_list"*, void (i32, %"class.std::ios_base"*, i32)*, i32, i32 }
%"struct.std::ios_base::_Words" = type { i8*, i64 }
%"class.std::locale" = type { %"class.std::locale::_Impl"* }
%"class.std::locale::_Impl" = type { i32, %"class.std::locale::facet"**, i64, %"class.std::locale::facet"**, i8** }
%"class.std::locale::facet" = type <{ i32 (...)**, i32, [4 x i8] }>
%"class.std::basic_ostream" = type { i32 (...)**, %"class.std::basic_ios" }
%"class.std::basic_streambuf" = type { i32 (...)**, i8*, i8*, i8*, i8*, i8*, i8*, %"class.std::locale" }
%"class.std::ctype" = type <{ %"class.std::locale::facet.base", [4 x i8], %struct.__locale_struct*, i8, [7 x i8], i32*, i32*, i16*, i8, [256 x i8], [256 x i8], i8, [6 x i8] }>
%"class.std::locale::facet.base" = type <{ i32 (...)**, i32 }>
%struct.__locale_struct = type { [13 x %struct.__locale_data*], i16*, i32*, i32*, [13 x i8*] }
%struct.__locale_data = type opaque
%"class.std::num_put" = type { %"class.std::locale::facet.base", [4 x i8] }
%"class.std::num_get" = type { %"class.std::locale::facet.base", [4 x i8] }

@_ZStL8__ioinit = internal global %"class.std::ios_base::Init" zeroinitializer, align 1
@__dso_handle = external hidden global i8
@_ZSt3cin = external global %"class.std::basic_istream", align 8
@_ZSt4cout = external global %"class.std::basic_ostream", align 8
@llvm.global_ctors = appending global [1 x { i32, void ()*, i8* }] [{ i32, void ()*, i8* } { i32 65535, void ()* @_GLOBAL__sub_I_933.cpp, i8* null }]

declare void @_ZNSt8ios_base4InitC1Ev(%"class.std::ios_base::Init"* nonnull align 1 dereferenceable(1)) unnamed_addr #0

; Function Attrs: nounwind
declare void @_ZNSt8ios_base4InitD1Ev(%"class.std::ios_base::Init"* nonnull align 1 dereferenceable(1)) unnamed_addr #1

; Function Attrs: nofree nounwind
declare i32 @__cxa_atexit(void (i8*)*, i8*, i8*) local_unnamed_addr #2

; Function Attrs: mustprogress norecurse sspstrong uwtable
define dso_local i32 @main() local_unnamed_addr #3 {
  %1 = alloca i32, align 4
  %2 = alloca [100 x i32], align 16
  %3 = bitcast i32* %1 to i8*
  call void @llvm.lifetime.start.p0i8(i64 4, i8* nonnull %3) #7
  store i32 0, i32* %1, align 4, !tbaa !5
  %4 = bitcast [100 x i32]* %2 to i8*
  call void @llvm.lifetime.start.p0i8(i64 400, i8* nonnull %4) #7
  call void @llvm.memset.p0i8.i64(i8* noundef nonnull align 16 dereferenceable(400) %4, i8 0, i64 400, i1 false)
  %5 = getelementptr inbounds [100 x i32], [100 x i32]* %2, i64 0, i64 0
  store i32 1, i32* %5, align 16
  %6 = call nonnull align 8 dereferenceable(16) %"class.std::basic_istream"* @_ZNSirsERi(%"class.std::basic_istream"* nonnull align 8 dereferenceable(16) @_ZSt3cin, i32* nonnull align 4 dereferenceable(4) %1)
  %7 = load i32, i32* %1, align 4, !tbaa !5
  %8 = icmp slt i32 %7, 1
  br i1 %8, label %21, label %9

9:                                                ; preds = %0, %79
  %10 = phi i32 [ %81, %79 ], [ 1, %0 ]
  %11 = phi i32 [ %80, %79 ], [ 0, %0 ]
  %12 = icmp sgt i32 %11, 0
  br i1 %12, label %13, label %39

13:                                               ; preds = %9
  %14 = zext i32 %11 to i64
  %15 = and i64 %14, 1
  %16 = icmp eq i32 %11, 1
  br i1 %16, label %24, label %17

17:                                               ; preds = %13
  %18 = and i64 %14, 4294967294
  br label %47

19:                                               ; preds = %79
  %20 = icmp sgt i32 %80, -1
  br i1 %20, label %21, label %83

21:                                               ; preds = %0, %19
  %22 = phi i32 [ %80, %19 ], [ 0, %0 ]
  %23 = zext i32 %22 to i64
  br label %84

24:                                               ; preds = %47, %13
  %25 = phi i32 [ undef, %13 ], [ %69, %47 ]
  %26 = phi i64 [ 0, %13 ], [ %70, %47 ]
  %27 = phi i32 [ 0, %13 ], [ %69, %47 ]
  %28 = icmp eq i64 %15, 0
  br i1 %28, label %39, label %29

29:                                               ; preds = %24
  %30 = getelementptr inbounds [100 x i32], [100 x i32]* %2, i64 0, i64 %26
  %31 = load i32, i32* %30, align 4, !tbaa !5
  %32 = shl nsw i32 %31, 1
  %33 = or i32 %32, %27
  %34 = icmp slt i32 %33, 10
  %35 = add nsw i32 %33, -10
  %36 = select i1 %34, i32 %33, i32 %35
  store i32 %36, i32* %30, align 4, !tbaa !5
  %37 = xor i1 %34, true
  %38 = zext i1 %37 to i32
  br label %39

39:                                               ; preds = %29, %24, %9
  %40 = phi i32 [ 0, %9 ], [ %25, %24 ], [ %38, %29 ]
  %41 = sext i32 %11 to i64
  %42 = getelementptr inbounds [100 x i32], [100 x i32]* %2, i64 0, i64 %41
  %43 = load i32, i32* %42, align 4, !tbaa !5
  %44 = shl nsw i32 %43, 1
  %45 = or i32 %44, %40
  %46 = icmp slt i32 %45, 10
  br i1 %46, label %73, label %74

47:                                               ; preds = %47, %17
  %48 = phi i64 [ 0, %17 ], [ %70, %47 ]
  %49 = phi i32 [ 0, %17 ], [ %69, %47 ]
  %50 = phi i64 [ %18, %17 ], [ %71, %47 ]
  %51 = getelementptr inbounds [100 x i32], [100 x i32]* %2, i64 0, i64 %48
  %52 = load i32, i32* %51, align 8, !tbaa !5
  %53 = shl nsw i32 %52, 1
  %54 = or i32 %53, %49
  %55 = icmp slt i32 %54, 10
  %56 = add nsw i32 %54, -10
  %57 = select i1 %55, i32 %54, i32 %56
  %58 = xor i1 %55, true
  %59 = zext i1 %58 to i32
  store i32 %57, i32* %51, align 8, !tbaa !5
  %60 = or i64 %48, 1
  %61 = getelementptr inbounds [100 x i32], [100 x i32]* %2, i64 0, i64 %60
  %62 = load i32, i32* %61, align 4, !tbaa !5
  %63 = shl nsw i32 %62, 1
  %64 = or i32 %63, %59
  %65 = icmp slt i32 %64, 10
  %66 = add nsw i32 %64, -10
  %67 = select i1 %65, i32 %64, i32 %66
  %68 = xor i1 %65, true
  %69 = zext i1 %68 to i32
  store i32 %67, i32* %61, align 4, !tbaa !5
  %70 = add nuw nsw i64 %48, 2
  %71 = add i64 %50, -2
  %72 = icmp eq i64 %71, 0
  br i1 %72, label %24, label %47, !llvm.loop !9

73:                                               ; preds = %39
  store i32 %45, i32* %42, align 4, !tbaa !5
  br label %79

74:                                               ; preds = %39
  %75 = add nsw i32 %45, -10
  store i32 %75, i32* %42, align 4, !tbaa !5
  %76 = add nsw i32 %11, 1
  %77 = sext i32 %76 to i64
  %78 = getelementptr inbounds [100 x i32], [100 x i32]* %2, i64 0, i64 %77
  store i32 1, i32* %78, align 4, !tbaa !5
  br label %79

79:                                               ; preds = %74, %73
  %80 = phi i32 [ %11, %73 ], [ %76, %74 ]
  %81 = add nuw i32 %10, 1
  %82 = icmp eq i32 %10, %7
  br i1 %82, label %19, label %9, !llvm.loop !11

83:                                               ; preds = %84, %19
  call void @llvm.lifetime.end.p0i8(i64 400, i8* nonnull %4) #7
  call void @llvm.lifetime.end.p0i8(i64 4, i8* nonnull %3) #7
  ret i32 0

84:                                               ; preds = %21, %84
  %85 = phi i64 [ %23, %21 ], [ %90, %84 ]
  %86 = getelementptr inbounds [100 x i32], [100 x i32]* %2, i64 0, i64 %85
  %87 = load i32, i32* %86, align 4, !tbaa !5
  %88 = call nonnull align 8 dereferenceable(8) %"class.std::basic_ostream"* @_ZNSolsEi(%"class.std::basic_ostream"* nonnull align 8 dereferenceable(8) @_ZSt4cout, i32 %87)
  %89 = icmp sgt i64 %85, 0
  %90 = add nsw i64 %85, -1
  br i1 %89, label %84, label %83, !llvm.loop !12
}

; Function Attrs: argmemonly mustprogress nofree nosync nounwind willreturn
declare void @llvm.lifetime.start.p0i8(i64 immarg, i8* nocapture) #4

; Function Attrs: argmemonly mustprogress nofree nounwind willreturn writeonly
declare void @llvm.memset.p0i8.i64(i8* nocapture writeonly, i8, i64, i1 immarg) #5

declare nonnull align 8 dereferenceable(16) %"class.std::basic_istream"* @_ZNSirsERi(%"class.std::basic_istream"* nonnull align 8 dereferenceable(16), i32* nonnull align 4 dereferenceable(4)) local_unnamed_addr #0

; Function Attrs: argmemonly mustprogress nofree nosync nounwind willreturn
declare void @llvm.lifetime.end.p0i8(i64 immarg, i8* nocapture) #4

declare nonnull align 8 dereferenceable(8) %"class.std::basic_ostream"* @_ZNSolsEi(%"class.std::basic_ostream"* nonnull align 8 dereferenceable(8), i32) local_unnamed_addr #0

; Function Attrs: sspstrong uwtable
define internal void @_GLOBAL__sub_I_933.cpp() #6 section ".text.startup" {
  tail call void @_ZNSt8ios_base4InitC1Ev(%"class.std::ios_base::Init"* nonnull align 1 dereferenceable(1) @_ZStL8__ioinit)
  %1 = tail call i32 @__cxa_atexit(void (i8*)* bitcast (void (%"class.std::ios_base::Init"*)* @_ZNSt8ios_base4InitD1Ev to void (i8*)*), i8* getelementptr inbounds (%"class.std::ios_base::Init", %"class.std::ios_base::Init"* @_ZStL8__ioinit, i64 0, i32 0), i8* nonnull @__dso_handle) #7
  ret void
}


!llvm.module.flags = !{!0, !1, !2, !3}
!llvm.ident = !{!4}

!0 = !{i32 1, !"wchar_size", i32 4}
!1 = !{i32 7, !"PIC Level", i32 2}
!2 = !{i32 7, !"PIE Level", i32 2}
!3 = !{i32 7, !"uwtable", i32 1}
!4 = !{!"clang version 13.0.0"}
!5 = !{!6, !6, i64 0}
!6 = !{!"int", !7, i64 0}
!7 = !{!"omnipotent char", !8, i64 0}
!8 = !{!"Simple C++ TBAA"}
!9 = distinct !{!9, !10}
!10 = !{!"llvm.loop.mustprogress"}
!11 = distinct !{!11, !10}
!12 = distinct !{!12, !10}
